; ModuleID = 'bench/gromacs/original/nvshmem_utils.cpp.ll'
source_filename = "bench/gromacs/original/nvshmem_utils.cpp.ll"
target datalayout = "e-m:e-p270:32:32-p271:32:32-p272:64:64-i64:64-i128:128-f80:128-n8:16:32:64-S128"
target triple = "x86_64-pc-linux-gnu"

@_ZN16gmxNvshmemHandleC1EP10tmpi_comm_ = unnamed_addr alias void (ptr, ptr), ptr @_ZN16gmxNvshmemHandleC2EP10tmpi_comm_
@_ZN16gmxNvshmemHandleD1Ev = unnamed_addr alias void (ptr), ptr @_ZN16gmxNvshmemHandleD2Ev

; Function Attrs: mustprogress nofree norecurse nosync nounwind willreturn memory(none) uwtable
define void @_ZN16gmxNvshmemHandleC2EP10tmpi_comm_(ptr nocapture nonnull readnone align 8 %0, ptr nocapture readnone %1) unnamed_addr #0 align 2 {
  ret void
}

; Function Attrs: mustprogress nofree norecurse nosync nounwind willreturn memory(none) uwtable
define void @_ZN16gmxNvshmemHandleD2Ev(ptr nocapture nonnull readnone align 8 %0) unnamed_addr #0 align 2 {
  ret void
}


!llvm.module.flags = !{!0, !1, !2, !3, !4}

!0 = !{i32 1, !"wchar_size", i32 4}
!1 = !{i32 7, !"openmp", i32 51}
!2 = !{i32 8, !"PIC Level", i32 2}
!3 = !{i32 7, !"uwtable", i32 2}
!4 = !{i32 7, !"frame-pointer", i32 2}
